	.cpu arm7tdmi
	.eabi_attribute 20, 1
	.eabi_attribute 21, 1
	.eabi_attribute 23, 3
	.eabi_attribute 24, 1
	.eabi_attribute 25, 1
	.eabi_attribute 26, 1
	.eabi_attribute 30, 2
	.eabi_attribute 34, 0
	.eabi_attribute 18, 4
	.file	"game.c"
	.text
	.align	2
	.global	start
	.arch armv4t
	.syntax unified
	.arm
	.fpu softvfp
	.type	start, %function
start:
	@ Function supports interworking.
	@ args = 0, pretend = 0, frame = 0
	@ frame_needed = 0, uses_anonymous_args = 0
	@ link register save eliminated.
	bx	lr
	.size	start, .-start
	.align	2
	.global	game1
	.syntax unified
	.arm
	.fpu softvfp
	.type	game1, %function
game1:
	@ Function supports interworking.
	@ args = 0, pretend = 0, frame = 0
	@ frame_needed = 0, uses_anonymous_args = 0
	@ link register save eliminated.
	bx	lr
	.size	game1, .-game1
	.align	2
	.global	game2
	.syntax unified
	.arm
	.fpu softvfp
	.type	game2, %function
game2:
	@ Function supports interworking.
	@ args = 0, pretend = 0, frame = 0
	@ frame_needed = 0, uses_anonymous_args = 0
	@ link register save eliminated.
	bx	lr
	.size	game2, .-game2
	.align	2
	.global	pause
	.syntax unified
	.arm
	.fpu softvfp
	.type	pause, %function
pause:
	@ Function supports interworking.
	@ args = 0, pretend = 0, frame = 0
	@ frame_needed = 0, uses_anonymous_args = 0
	@ link register save eliminated.
	bx	lr
	.size	pause, .-pause
	.align	2
	.global	win
	.syntax unified
	.arm
	.fpu softvfp
	.type	win, %function
win:
	@ Function supports interworking.
	@ args = 0, pretend = 0, frame = 0
	@ frame_needed = 0, uses_anonymous_args = 0
	@ link register save eliminated.
	bx	lr
	.size	win, .-win
	.align	2
	.global	lose
	.syntax unified
	.arm
	.fpu softvfp
	.type	lose, %function
lose:
	@ Function supports interworking.
	@ args = 0, pretend = 0, frame = 0
	@ frame_needed = 0, uses_anonymous_args = 0
	@ link register save eliminated.
	bx	lr
	.size	lose, .-lose
	.align	2
	.global	goToStart
	.syntax unified
	.arm
	.fpu softvfp
	.type	goToStart, %function
goToStart:
	@ Function supports interworking.
	@ args = 0, pretend = 0, frame = 0
	@ frame_needed = 0, uses_anonymous_args = 0
	@ link register save eliminated.
	mov	r2, #0
	ldr	r3, .L9
	str	r2, [r3]
	bx	lr
.L10:
	.align	2
.L9:
	.word	state
	.size	goToStart, .-goToStart
	.align	2
	.global	goToPause
	.syntax unified
	.arm
	.fpu softvfp
	.type	goToPause, %function
goToPause:
	@ Function supports interworking.
	@ args = 0, pretend = 0, frame = 0
	@ frame_needed = 0, uses_anonymous_args = 0
	@ link register save eliminated.
	mov	r2, #1
	ldr	r3, .L12
	str	r2, [r3]
	bx	lr
.L13:
	.align	2
.L12:
	.word	state
	.size	goToPause, .-goToPause
	.align	2
	.global	goToGame1
	.syntax unified
	.arm
	.fpu softvfp
	.type	goToGame1, %function
goToGame1:
	@ Function supports interworking.
	@ args = 0, pretend = 0, frame = 0
	@ frame_needed = 0, uses_anonymous_args = 0
	@ link register save eliminated.
	mov	r2, #2
	ldr	r3, .L15
	str	r2, [r3]
	bx	lr
.L16:
	.align	2
.L15:
	.word	state
	.size	goToGame1, .-goToGame1
	.align	2
	.global	goToGame2
	.syntax unified
	.arm
	.fpu softvfp
	.type	goToGame2, %function
goToGame2:
	@ Function supports interworking.
	@ args = 0, pretend = 0, frame = 0
	@ frame_needed = 0, uses_anonymous_args = 0
	@ link register save eliminated.
	mov	r2, #3
	ldr	r3, .L18
	str	r2, [r3]
	bx	lr
.L19:
	.align	2
.L18:
	.word	state
	.size	goToGame2, .-goToGame2
	.align	2
	.global	goToWin
	.syntax unified
	.arm
	.fpu softvfp
	.type	goToWin, %function
goToWin:
	@ Function supports interworking.
	@ args = 0, pretend = 0, frame = 0
	@ frame_needed = 0, uses_anonymous_args = 0
	@ link register save eliminated.
	mov	r2, #4
	ldr	r3, .L21
	str	r2, [r3]
	bx	lr
.L22:
	.align	2
.L21:
	.word	state
	.size	goToWin, .-goToWin
	.align	2
	.global	goToLose
	.syntax unified
	.arm
	.fpu softvfp
	.type	goToLose, %function
goToLose:
	@ Function supports interworking.
	@ args = 0, pretend = 0, frame = 0
	@ frame_needed = 0, uses_anonymous_args = 0
	@ link register save eliminated.
	mov	r2, #5
	ldr	r3, .L24
	str	r2, [r3]
	bx	lr
.L25:
	.align	2
.L24:
	.word	state
	.size	goToLose, .-goToLose
	.comm	STATE,1,1
	.ident	"GCC: (devkitARM release 53) 9.1.0"
